target datalayout = "e-m:e-p270:32:32-p271:32:32-p272:64:64-i64:64-i128:128-f80:128-n8:16:32:64-S128"
target triple = "x86_64-pc-linux-gnu"

%struct.CVodeMemRec = type { double, ptr, ptr, i32, i32, i32, double, double, ptr, i32, ptr, ptr, i32, ptr, i32, i32, double, double, ptr, i32, i32, i32, ptr, ptr, ptr, i32, i32, ptr, ptr, ptr, i32, double, i32, i32, double, ptr, ptr, i32, ptr, ptr, i32, i32, i32, double, ptr, ptr, [13 x ptr], ptr, ptr, ptr, ptr, ptr, [13 x ptr], ptr, ptr, ptr, ptr, [13 x ptr], ptr, ptr, ptr, ptr, ptr, i32, [13 x ptr], ptr, ptr, ptr, ptr, ptr, i32, double, i32, i32, i32, i32, i32, double, double, double, double, double, double, double, double, [14 x double], [6 x double], [13 x double], double, double, double, double, double, double, double, double, double, double, double, i32, ptr, i32, i64, i32, i32, i32, i32, i32, double, double, double, i64, i64, i64, i64, i64, i64, i64, i64, i64, ptr, i64, i64, ptr, i64, i64, i64, i64, i64, i64, i32, i64, i64, i64, i64, i64, i64, double, double, double, ptr, ptr, ptr, ptr, ptr, i32, i32, i64, double, double, double, i32, double, i32, i32, i32, i32, i32, i32, i32, i32, i32, i32, i32, i32, i32, i32, i32, i32, ptr, ptr, ptr, i32, [6 x [4 x double]], i32, i64, ptr, i32, ptr, ptr, double, double, double, ptr, ptr, ptr, double, double, i32, i32, i64, ptr, i32, i32, ptr, i32 }
%struct.CVadjMemRec = type { double, double, i32, i32, double, ptr, i32, ptr, i32, ptr, i32, ptr, i64, ptr, i64, i32, ptr, ptr, ptr, ptr, i32, i32, i32, i32, [13 x ptr], [13 x ptr], [13 x double], ptr, ptr, i64 }
%struct.CVodeBMemRec = type { i32, double, ptr, i32, i32, ptr, ptr, ptr, ptr, ptr, ptr, ptr, ptr, ptr, double, ptr, ptr }
%struct.CVBBDPrecDataRecB = type { ptr, ptr }

@.str = private unnamed_addr constant [9 x i8] c"CVBBDPRE\00", align 1
@.str.17 = private unnamed_addr constant [25 x i8] c"Bad t for interpolation.\00", align 1
@.str.18 = private unnamed_addr constant [13 x i8] c"cvCfnWrapper\00", align 1

; Function Attrs: nounwind uwtable
define internal i32 @cvCfnWrapper(i64 noundef %0, double noundef %1, ptr noundef %2, ptr noundef %3) #0 {
  %5 = alloca i32, align 4
  %6 = alloca i64, align 8
  %7 = alloca double, align 8
  %8 = alloca ptr, align 8
  %9 = alloca ptr, align 8
  %10 = alloca ptr, align 8
  %11 = alloca ptr, align 8
  %12 = alloca ptr, align 8
  %13 = alloca ptr, align 8
  %14 = alloca i32, align 4
  %15 = alloca i32, align 4
  %16 = alloca i32, align 4
  store i64 %0, ptr %6, align 8, !tbaa !7
  store double %1, ptr %7, align 8, !tbaa !9
  store ptr %2, ptr %8, align 8, !tbaa !55
  store ptr %3, ptr %9, align 8, !tbaa !3
  call void @llvm.lifetime.start.p0(i64 8, ptr %10) #5
  call void @llvm.lifetime.start.p0(i64 8, ptr %11) #5
  call void @llvm.lifetime.start.p0(i64 8, ptr %12) #5
  call void @llvm.lifetime.start.p0(i64 8, ptr %13) #5
  call void @llvm.lifetime.start.p0(i64 4, ptr %14) #5
  call void @llvm.lifetime.start.p0(i64 4, ptr %15) #5
  %17 = load ptr, ptr %9, align 8, !tbaa !3
  store ptr %17, ptr %10, align 8, !tbaa !11
  %18 = load ptr, ptr %10, align 8, !tbaa !11
  %19 = getelementptr inbounds nuw %struct.CVodeMemRec, ptr %18, i32 0, i32 194
  %20 = load ptr, ptr %19, align 8, !tbaa !60
  store ptr %20, ptr %11, align 8, !tbaa !61
  %21 = load ptr, ptr %11, align 8, !tbaa !61
  %22 = getelementptr inbounds nuw %struct.CVadjMemRec, ptr %21, i32 0, i32 7
  %23 = load ptr, ptr %22, align 8, !tbaa !82
  store ptr %23, ptr %12, align 8, !tbaa !68
  %24 = load ptr, ptr %12, align 8, !tbaa !68
  %25 = getelementptr inbounds nuw %struct.CVodeBMemRec, ptr %24, i32 0, i32 12
  %26 = load ptr, ptr %25, align 8, !tbaa !80
  store ptr %26, ptr %13, align 8, !tbaa !75
  %27 = load ptr, ptr %13, align 8, !tbaa !75
  %28 = getelementptr inbounds nuw %struct.CVBBDPrecDataRecB, ptr %27, i32 0, i32 1
  %29 = load ptr, ptr %28, align 8, !tbaa !79
  %30 = icmp eq ptr %29, null
  br i1 %30, label %31, label %32

31:                                               ; preds = %4
  store i32 0, ptr %5, align 4
  store i32 1, ptr %16, align 4
  br label %61

32:                                               ; preds = %4
  %33 = load ptr, ptr %11, align 8, !tbaa !61
  %34 = getelementptr inbounds nuw %struct.CVadjMemRec, ptr %33, i32 0, i32 19
  %35 = load ptr, ptr %34, align 8, !tbaa !83
  %36 = load ptr, ptr %10, align 8, !tbaa !11
  %37 = load double, ptr %7, align 8, !tbaa !9
  %38 = load ptr, ptr %11, align 8, !tbaa !61
  %39 = getelementptr inbounds nuw %struct.CVadjMemRec, ptr %38, i32 0, i32 27
  %40 = load ptr, ptr %39, align 8, !tbaa !84
  %41 = call i32 %35(ptr noundef %36, double noundef %37, ptr noundef %40, ptr noundef null)
  store i32 %41, ptr %15, align 4, !tbaa !54
  %42 = load i32, ptr %15, align 4, !tbaa !54
  %43 = icmp ne i32 %42, 0
  br i1 %43, label %44, label %46

44:                                               ; preds = %32
  %45 = load ptr, ptr %10, align 8, !tbaa !11
  call void (ptr, i32, ptr, ptr, ptr, ...) @cvProcessError(ptr noundef %45, i32 noundef -1, ptr noundef @.str, ptr noundef @.str.18, ptr noundef @.str.17)
  store i32 -1, ptr %5, align 4
  store i32 1, ptr %16, align 4
  br label %61

46:                                               ; preds = %32
  %47 = load ptr, ptr %13, align 8, !tbaa !75
  %48 = getelementptr inbounds nuw %struct.CVBBDPrecDataRecB, ptr %47, i32 0, i32 1
  %49 = load ptr, ptr %48, align 8, !tbaa !79
  %50 = load i64, ptr %6, align 8, !tbaa !7
  %51 = load double, ptr %7, align 8, !tbaa !9
  %52 = load ptr, ptr %11, align 8, !tbaa !61
  %53 = getelementptr inbounds nuw %struct.CVadjMemRec, ptr %52, i32 0, i32 27
  %54 = load ptr, ptr %53, align 8, !tbaa !84
  %55 = load ptr, ptr %8, align 8, !tbaa !55
  %56 = load ptr, ptr %12, align 8, !tbaa !68
  %57 = getelementptr inbounds nuw %struct.CVodeBMemRec, ptr %56, i32 0, i32 9
  %58 = load ptr, ptr %57, align 8, !tbaa !85
  %59 = call i32 %49(i64 noundef %50, double noundef %51, ptr noundef %54, ptr noundef %55, ptr noundef %58)
  store i32 %59, ptr %14, align 4, !tbaa !54
  %60 = load i32, ptr %14, align 4, !tbaa !54
  store i32 %60, ptr %5, align 4
  store i32 1, ptr %16, align 4
  br label %61

61:                                               ; preds = %46, %44, %31
  call void @llvm.lifetime.end.p0(i64 4, ptr %15) #5
  call void @llvm.lifetime.end.p0(i64 4, ptr %14) #5
  call void @llvm.lifetime.end.p0(i64 8, ptr %13) #5
  call void @llvm.lifetime.end.p0(i64 8, ptr %12) #5
  call void @llvm.lifetime.end.p0(i64 8, ptr %11) #5
  call void @llvm.lifetime.end.p0(i64 8, ptr %10) #5
  %62 = load i32, ptr %5, align 4
  ret i32 %62
}